target datalayout = "e-m:e-p270:32:32-p271:32:32-p272:64:64-i64:64-i128:128-f80:128-n8:16:32:64-S128"
target triple = "x86_64-pc-linux-gnu"

%class.JVMCICompiler = type { %class.AbstractCompiler, i8, i8, i32, i32, i32, i8, i32, %"class.JVMCICompiler::CodeInstallStats", %"class.JVMCICompiler::CodeInstallStats" }
%class.AbstractCompiler = type { ptr, i32, i32, i8, [7 x i8], %class.CompilerStatistics }
%class.CompilerStatistics = type { %"class.CompilerStatistics::Data", %"class.CompilerStatistics::Data", i32, i32 }
%"class.CompilerStatistics::Data" = type { %class.elapsedTimer, i32, i32 }
%class.elapsedTimer = type <{ i64, i64, i8, [7 x i8] }>
%"class.JVMCICompiler::CodeInstallStats" = type { %class.elapsedTimer, i32, i32, i32, [4 x i8] }

@tty = external global ptr, align 8
@.str.11 = private unnamed_addr constant [30 x i8] c"    JVMCI CompileBroker Time:\00", align 1
@.str.12 = private unnamed_addr constant [31 x i8] c"       Compile:        %7.3f s\00", align 1
@.str.13 = private unnamed_addr constant [24 x i8] c"       Install Code:   \00", align 1
@.str.14 = private unnamed_addr constant [23 x i8] c"    JVMCI Hosted Time:\00", align 1
@.str.15 = private unnamed_addr constant [74 x i8] c"%s%7.3f s (installs: %d, CodeBlob total size: %d, CodeBlob code size: %d)\00", align 1

; Function Attrs: mustprogress nounwind uwtable
define hidden void @_ZNK13JVMCICompiler16CodeInstallStats8print_onEP12outputStreamPKc(ptr noundef nonnull align 8 dereferenceable(36) %0, ptr noundef %1, ptr noundef %2) #1 align 2 {
  %4 = alloca ptr, align 8
  %5 = alloca ptr, align 8
  %6 = alloca ptr, align 8
  %7 = alloca double, align 8
  store ptr %0, ptr %4, align 8
  store ptr %1, ptr %5, align 8
  store ptr %2, ptr %6, align 8
  %8 = load ptr, ptr %4, align 8
  %9 = getelementptr inbounds %"class.JVMCICompiler::CodeInstallStats", ptr %8, i32 0, i32 0
  %10 = call noundef double @_ZNK12elapsedTimer7secondsEv(ptr noundef nonnull align 8 dereferenceable(17) %9)
  store double %10, ptr %7, align 8
  %11 = load ptr, ptr %5, align 8
  %12 = load ptr, ptr %6, align 8
  %13 = load double, ptr %7, align 8
  %14 = getelementptr inbounds %"class.JVMCICompiler::CodeInstallStats", ptr %8, i32 0, i32 1
  %15 = load volatile i32, ptr %14, align 8
  %16 = getelementptr inbounds %"class.JVMCICompiler::CodeInstallStats", ptr %8, i32 0, i32 2
  %17 = load volatile i32, ptr %16, align 4
  %18 = getelementptr inbounds %"class.JVMCICompiler::CodeInstallStats", ptr %8, i32 0, i32 3
  %19 = load volatile i32, ptr %18, align 8
  call void (ptr, ptr, ...) @_ZN12outputStream8print_crEPKcz(ptr noundef nonnull align 8 dereferenceable(56) %11, ptr noundef @.str.15, ptr noundef %12, double noundef %13, i32 noundef %15, i32 noundef %17, i32 noundef %19)
  ret void
}

; Function Attrs: mustprogress nounwind uwtable
define linkonce_odr hidden noundef double @_ZN18CompilerStatistics10total_timeEv(ptr noundef nonnull align 8 dereferenceable(72) %0) #1 comdat align 2 {
  %2 = alloca ptr, align 8
  store ptr %0, ptr %2, align 8
  %3 = load ptr, ptr %2, align 8
  %4 = getelementptr inbounds %class.CompilerStatistics, ptr %3, i32 0, i32 0
  %5 = getelementptr inbounds %"class.CompilerStatistics::Data", ptr %4, i32 0, i32 0
  %6 = call noundef double @_ZNK12elapsedTimer7secondsEv(ptr noundef nonnull align 8 dereferenceable(17) %5)
  %7 = getelementptr inbounds %class.CompilerStatistics, ptr %3, i32 0, i32 1
  %8 = getelementptr inbounds %"class.CompilerStatistics::Data", ptr %7, i32 0, i32 0
  %9 = call noundef double @_ZNK12elapsedTimer7secondsEv(ptr noundef nonnull align 8 dereferenceable(17) %8)
  %10 = fadd double %6, %9
  ret double %10
}

; Function Attrs: mustprogress nounwind uwtable
define linkonce_odr hidden noundef ptr @_ZN16AbstractCompiler5statsEv(ptr noundef nonnull align 8 dereferenceable(96) %0) #1 comdat align 2 {
  %2 = alloca ptr, align 8
  store ptr %0, ptr %2, align 8
  %3 = load ptr, ptr %2, align 8
  %4 = getelementptr inbounds %class.AbstractCompiler, ptr %3, i32 0, i32 5
  ret ptr %4
}

; Function Attrs: mustprogress nounwind uwtable
define hidden void @_ZN13JVMCICompiler12print_timersEv(ptr noundef nonnull align 8 dereferenceable(200) %0) unnamed_addr #1 align 2 {
  %2 = alloca ptr, align 8
  store ptr %0, ptr %2, align 8
  %3 = load ptr, ptr %2, align 8
  %4 = load ptr, ptr @tty, align 8
  call void (ptr, ptr, ...) @_ZN12outputStream8print_crEPKcz(ptr noundef nonnull align 8 dereferenceable(56) %4, ptr noundef @.str.11)
  %5 = load ptr, ptr @tty, align 8
  %6 = call noundef ptr @_ZN16AbstractCompiler5statsEv(ptr noundef nonnull align 8 dereferenceable(96) %3)
  %7 = call noundef double @_ZN18CompilerStatistics10total_timeEv(ptr noundef nonnull align 8 dereferenceable(72) %6)
  call void (ptr, ptr, ...) @_ZN12outputStream8print_crEPKcz(ptr noundef nonnull align 8 dereferenceable(56) %5, ptr noundef @.str.12, double noundef %7)
  %8 = getelementptr inbounds %class.JVMCICompiler, ptr %3, i32 0, i32 8
  %9 = load ptr, ptr @tty, align 8
  call void @_ZNK13JVMCICompiler16CodeInstallStats8print_onEP12outputStreamPKc(ptr noundef nonnull align 8 dereferenceable(36) %8, ptr noundef %9, ptr noundef @.str.13)
  %10 = load ptr, ptr @tty, align 8
  call void @_ZN12outputStream2crEv(ptr noundef nonnull align 8 dereferenceable(56) %10)
  %11 = load ptr, ptr @tty, align 8
  call void (ptr, ptr, ...) @_ZN12outputStream8print_crEPKcz(ptr noundef nonnull align 8 dereferenceable(56) %11, ptr noundef @.str.14)
  %12 = getelementptr inbounds %class.JVMCICompiler, ptr %3, i32 0, i32 9
  %13 = load ptr, ptr @tty, align 8
  call void @_ZNK13JVMCICompiler16CodeInstallStats8print_onEP12outputStreamPKc(ptr noundef nonnull align 8 dereferenceable(36) %12, ptr noundef %13, ptr noundef @.str.13)
  ret void
}