; Function Attrs: mustprogress nounwind uwtable
define hidden void @_ZN13JVMCICompiler12print_timersEv(ptr noundef nonnull align 8 dereferenceable(200) %0) unnamed_addr #1 align 2 {
  %2 = load ptr, ptr @tty, align 8
  tail call void (ptr, ptr, ...) @_ZN12outputStream8print_crEPKcz(ptr noundef nonnull align 8 dereferenceable(56) %2, ptr noundef nonnull @.str.11) #10
  %3 = load ptr, ptr @tty, align 8
  %4 = getelementptr inbounds i8, ptr %0, i64 24
  %5 = tail call noundef double @_ZNK12elapsedTimer7secondsEv(ptr noundef nonnull align 8 dereferenceable(17) %4) #10
  %6 = getelementptr inbounds i8, ptr %0, i64 56
  %7 = tail call noundef double @_ZNK12elapsedTimer7secondsEv(ptr noundef nonnull align 8 dereferenceable(17) %6) #10
  %8 = fadd double %5, %7
  tail call void (ptr, ptr, ...) @_ZN12outputStream8print_crEPKcz(ptr noundef nonnull align 8 dereferenceable(56) %3, ptr noundef nonnull @.str.12, double noundef %8) #10
  %9 = getelementptr inbounds i8, ptr %0, i64 120
  %10 = load ptr, ptr @tty, align 8
  %11 = tail call noundef double @_ZNK12elapsedTimer7secondsEv(ptr noundef nonnull align 8 dereferenceable(17) %9) #10
  %12 = getelementptr inbounds i8, ptr %0, i64 144
  %13 = load volatile i32, ptr %12, align 8
  %14 = getelementptr inbounds i8, ptr %0, i64 148
  %15 = load volatile i32, ptr %14, align 4
  %16 = getelementptr inbounds i8, ptr %0, i64 152
  %17 = load volatile i32, ptr %16, align 8
  tail call void (ptr, ptr, ...) @_ZN12outputStream8print_crEPKcz(ptr noundef nonnull align 8 dereferenceable(56) %10, ptr noundef nonnull @.str.15, ptr noundef nonnull @.str.13, double noundef %11, i32 noundef %13, i32 noundef %15, i32 noundef %17) #10
  %18 = load ptr, ptr @tty, align 8
  tail call void @_ZN12outputStream2crEv(ptr noundef nonnull align 8 dereferenceable(56) %18) #10
  %19 = load ptr, ptr @tty, align 8
  tail call void (ptr, ptr, ...) @_ZN12outputStream8print_crEPKcz(ptr noundef nonnull align 8 dereferenceable(56) %19, ptr noundef nonnull @.str.14) #10
  %20 = getelementptr inbounds i8, ptr %0, i64 160
  %21 = load ptr, ptr @tty, align 8
  %22 = tail call noundef double @_ZNK12elapsedTimer7secondsEv(ptr noundef nonnull align 8 dereferenceable(17) %20) #10
  %23 = getelementptr inbounds i8, ptr %0, i64 184
  %24 = load volatile i32, ptr %23, align 8
  %25 = getelementptr inbounds i8, ptr %0, i64 188
  %26 = load volatile i32, ptr %25, align 4
  %27 = getelementptr inbounds i8, ptr %0, i64 192
  %28 = load volatile i32, ptr %27, align 8
  tail call void (ptr, ptr, ...) @_ZN12outputStream8print_crEPKcz(ptr noundef nonnull align 8 dereferenceable(56) %21, ptr noundef nonnull @.str.15, ptr noundef nonnull @.str.13, double noundef %22, i32 noundef %24, i32 noundef %26, i32 noundef %28) #10
  ret void
}